[000h 0000   4]                    Signature : "IORT"    [IO Remapping Table]
[004h 0004   4]                 Table Length : 0000189C
[008h 0008   1]                     Revision : 00
[009h 0009   1]                     Checksum : 00     /* Incorrect checksum, should be A4 */
[00Ah 0010   6]                       Oem ID : "QCOM  "
[010h 0016   8]                 Oem Table ID : "QCOMEDK2"
[018h 0024   4]                 Oem Revision : 00008280
[01Ch 0028   4]              Asl Compiler ID : "QCOM"
[020h 0032   4]        Asl Compiler Revision : 00000001

[024h 0036   4]                   Node Count : 00000017
[028h 0040   4]                  Node Offset : 00000030
[02Ch 0044   4]                     Reserved : 00000000

[030h 0048   1]                         Type : 03
[031h 0049   2]                       Length : 04CC
[033h 0051   1]                     Revision : 00
[034h 0052   4]                     Reserved : 00000000
[038h 0056   4]                Mapping Count : 00000000
[03Ch 0060   4]               Mapping Offset : 00000000

[040h 0064   8]                 Base Address : 0000000015000000
[048h 0072   8]                         Span : 0000000000100000
[050h 0080   4]                        Model : 00000003
[054h 0084   4]        Flags (decoded below) : 00000000
                               DVM Supported : 0
                               Coherent Walk : 0
[058h 0088   4]      Global Interrupt Offset : 0000003C
[05Ch 0092   4]      Context Interrupt Count : 00000080
[060h 0096   4]     Context Interrupt Offset : 0000004C
[064h 0100   4]          PMU Interrupt Count : 00000010
[068h 0104   4]         PMU Interrupt Offset : 0000044C

[06Ch 0108   4]                      NSgIrpt : 00000061
[070h 0112   4] NSgIrpt Flags (decoded below) : 00000000
                              Edge Triggered : 0
[074h 0116   4]                   NSgCfgIrpt : 00000000
[078h 0120   4] NSgCfgIrpt Flags (decoded below) : 00000000
                              Edge Triggered : 0
[07Ch 0124   8]            Context Interrupt : 0000000100000087
[084h 0132   8]            Context Interrupt : 0000000100000088
[08Ch 0140   8]            Context Interrupt : 0000000100000089
[094h 0148   8]            Context Interrupt : 000000010000008A
[09Ch 0156   8]            Context Interrupt : 000000010000008B
[0A4h 0164   8]            Context Interrupt : 000000010000008C
[0ACh 0172   8]            Context Interrupt : 000000010000008D
[0B4h 0180   8]            Context Interrupt : 000000010000008E
[0BCh 0188   8]            Context Interrupt : 000000010000008F
[0C4h 0196   8]            Context Interrupt : 0000000100000090
[0CCh 0204   8]            Context Interrupt : 0000000100000091
[0D4h 0212   8]            Context Interrupt : 0000000100000092
[0DCh 0220   8]            Context Interrupt : 0000000100000093
[0E4h 0228   8]            Context Interrupt : 0000000100000094
[0ECh 0236   8]            Context Interrupt : 0000000100000095
[0F4h 0244   8]            Context Interrupt : 0000000100000096
[0FCh 0252   8]            Context Interrupt : 00000001000000D5
[104h 0260   8]            Context Interrupt : 00000001000000D6
[10Ch 0268   8]            Context Interrupt : 00000001000000D7
[114h 0276   8]            Context Interrupt : 00000001000000D8
[11Ch 0284   8]            Context Interrupt : 00000001000000D9
[124h 0292   8]            Context Interrupt : 00000001000000DA
[12Ch 0300   8]            Context Interrupt : 00000001000000DB
[134h 0308   8]            Context Interrupt : 00000001000000DC
[13Ch 0316   8]            Context Interrupt : 00000001000000DD
[144h 0324   8]            Context Interrupt : 00000001000000DE
[14Ch 0332   8]            Context Interrupt : 00000001000000DF
[154h 0340   8]            Context Interrupt : 00000001000000E0
[15Ch 0348   8]            Context Interrupt : 000000010000015B
[164h 0356   8]            Context Interrupt : 000000010000015C
[16Ch 0364   8]            Context Interrupt : 000000010000015D
[174h 0372   8]            Context Interrupt : 000000010000015E
[17Ch 0380   8]            Context Interrupt : 000000010000015F
[184h 0388   8]            Context Interrupt : 0000000100000160
[18Ch 0396   8]            Context Interrupt : 0000000100000161
[194h 0404   8]            Context Interrupt : 0000000100000162
[19Ch 0412   8]            Context Interrupt : 0000000100000163
[1A4h 0420   8]            Context Interrupt : 0000000100000164
[1ACh 0428   8]            Context Interrupt : 0000000100000165
[1B4h 0436   8]            Context Interrupt : 0000000100000166
[1BCh 0444   8]            Context Interrupt : 0000000100000167
[1C4h 0452   8]            Context Interrupt : 0000000100000168
[1CCh 0460   8]            Context Interrupt : 0000000100000169
[1D4h 0468   8]            Context Interrupt : 000000010000016A
[1DCh 0476   8]            Context Interrupt : 000000010000016B
[1E4h 0484   8]            Context Interrupt : 000000010000016C
[1ECh 0492   8]            Context Interrupt : 000000010000016D
[1F4h 0500   8]            Context Interrupt : 000000010000016E
[1FCh 0508   8]            Context Interrupt : 000000010000016F
[204h 0516   8]            Context Interrupt : 0000000100000170
[20Ch 0524   8]            Context Interrupt : 0000000100000171
[214h 0532   8]            Context Interrupt : 0000000100000172
[21Ch 0540   8]            Context Interrupt : 0000000100000173
[224h 0548   8]            Context Interrupt : 0000000100000174
[22Ch 0556   8]            Context Interrupt : 0000000100000175
[234h 0564   8]            Context Interrupt : 0000000100000176
[23Ch 0572   8]            Context Interrupt : 0000000100000177
[244h 0580   8]            Context Interrupt : 0000000100000178
[24Ch 0588   8]            Context Interrupt : 0000000100000179
[254h 0596   8]            Context Interrupt : 00000001000001AB
[25Ch 0604   8]            Context Interrupt : 00000001000001AC
[264h 0612   8]            Context Interrupt : 00000001000001AD
[26Ch 0620   8]            Context Interrupt : 00000001000001AE
[274h 0628   8]            Context Interrupt : 00000001000001AF
[27Ch 0636   8]            Context Interrupt : 00000001000001B0
[284h 0644   8]            Context Interrupt : 00000001000001B1
[28Ch 0652   8]            Context Interrupt : 00000001000001B2
[294h 0660   8]            Context Interrupt : 00000001000001B3
[29Ch 0668   8]            Context Interrupt : 00000001000001B4
[2A4h 0676   8]            Context Interrupt : 00000001000001B5
[2ACh 0684   8]            Context Interrupt : 00000001000001B6
[2B4h 0692   8]            Context Interrupt : 00000001000001B7
[2BCh 0700   8]            Context Interrupt : 00000001000001B8
[2C4h 0708   8]            Context Interrupt : 00000001000001B9
[2CCh 0716   8]            Context Interrupt : 00000001000001C2
[2D4h 0724   8]            Context Interrupt : 00000001000001C3
[2DCh 0732   8]            Context Interrupt : 00000001000001BC
[2E4h 0740   8]            Context Interrupt : 00000001000001C5
[2ECh 0748   8]            Context Interrupt : 00000001000002E2
[2F4h 0756   8]            Context Interrupt : 00000001000001C7
[2FCh 0764   8]            Context Interrupt : 00000001000001C8
[304h 0772   8]            Context Interrupt : 00000001000001C9
[30Ch 0780   8]            Context Interrupt : 00000001000002D1
[314h 0788   8]            Context Interrupt : 00000001000002D2
[31Ch 0796   8]            Context Interrupt : 00000001000002D3
[324h 0804   8]            Context Interrupt : 00000001000002D4
[32Ch 0812   8]            Context Interrupt : 00000001000002D5
[334h 0820   8]            Context Interrupt : 00000001000002D6
[33Ch 0828   8]            Context Interrupt : 00000001000002D7
[344h 0836   8]            Context Interrupt : 00000001000002D8
[34Ch 0844   8]            Context Interrupt : 00000001000001BA
[354h 0852   8]            Context Interrupt : 00000001000001BB
[35Ch 0860   8]            Context Interrupt : 00000001000001C4
[364h 0868   8]            Context Interrupt : 00000001000001BD
[36Ch 0876   8]            Context Interrupt : 00000001000001C6
[374h 0884   8]            Context Interrupt : 00000001000002E3
[37Ch 0892   8]            Context Interrupt : 00000001000002E4
[384h 0900   8]            Context Interrupt : 00000001000002E5
[38Ch 0908   8]            Context Interrupt : 00000001000002E6
[394h 0916   8]            Context Interrupt : 00000001000002E7
[39Ch 0924   8]            Context Interrupt : 00000001000001BE
[3A4h 0932   8]            Context Interrupt : 00000001000002E8
[3ACh 0940   8]            Context Interrupt : 00000001000002E9
[3B4h 0948   8]            Context Interrupt : 00000001000002EA
[3BCh 0956   8]            Context Interrupt : 00000001000002EB
[3C4h 0964   8]            Context Interrupt : 00000001000003B0
[3CCh 0972   8]            Context Interrupt : 00000001000003AF
[3D4h 0980   8]            Context Interrupt : 00000001000003AE
[3DCh 0988   8]            Context Interrupt : 00000001000003AD
[3E4h 0996   8]            Context Interrupt : 00000001000003AC
[3ECh 1004   8]            Context Interrupt : 00000001000003AB
[3F4h 1012   8]            Context Interrupt : 00000001000003AA
[3FCh 1020   8]            Context Interrupt : 00000001000003A9
[404h 1028   8]            Context Interrupt : 00000001000003A8
[40Ch 1036   8]            Context Interrupt : 00000001000003A7
[414h 1044   8]            Context Interrupt : 00000001000003A6
[41Ch 1052   8]            Context Interrupt : 00000001000003A5
[424h 1060   8]            Context Interrupt : 00000001000003A4
[42Ch 1068   8]            Context Interrupt : 00000001000003A3
[434h 1076   8]            Context Interrupt : 00000001000003A2
[43Ch 1084   8]            Context Interrupt : 00000001000003A1
[444h 1092   8]            Context Interrupt : 00000001000003A0
[44Ch 1100   8]            Context Interrupt : 000000010000039F
[454h 1108   8]            Context Interrupt : 000000010000039E
[45Ch 1116   8]            Context Interrupt : 000000010000039D
[464h 1124   8]            Context Interrupt : 000000010000039C
[46Ch 1132   8]            Context Interrupt : 000000010000039B
[474h 1140   8]            Context Interrupt : 000000010000039A
[47Ch 1148   8]                PMU Interrupt : 0000000100000064
[484h 1156   8]                PMU Interrupt : 0000000100000065
[48Ch 1164   8]                PMU Interrupt : 0000000100000066
[494h 1172   8]                PMU Interrupt : 0000000100000067
[49Ch 1180   8]                PMU Interrupt : 0000000100000068
[4A4h 1188   8]                PMU Interrupt : 0000000100000069
[4ACh 1196   8]                PMU Interrupt : 000000010000007E
[4B4h 1204   8]                PMU Interrupt : 000000010000007F
[4BCh 1212   8]                PMU Interrupt : 0000000100000080
[4C4h 1220   8]                PMU Interrupt : 0000000100000081
[4CCh 1228   8]                PMU Interrupt : 0000000100000082
[4D4h 1236   8]                PMU Interrupt : 0000000100000083
[4DCh 1244   8]                PMU Interrupt : 0000000100000084
[4E4h 1252   8]                PMU Interrupt : 0000000100000085
[4ECh 1260   8]                PMU Interrupt : 0000000100000086
[4F4h 1268   8]                PMU Interrupt : 00000001000001CA

[4FCh 1276   1]                         Type : 03
[4FDh 1277   2]                       Length : 00BC
[4FFh 1279   1]                     Revision : 00
[500h 1280   4]                     Reserved : 00000000
[504h 1284   4]                Mapping Count : 00000000
[508h 1288   4]               Mapping Offset : 00000000

[50Ch 1292   8]                 Base Address : 0000000003DA0000
[514h 1300   8]                         Span : 0000000000020000
[51Ch 1308   4]                        Model : 00000003
[520h 1312   4]        Flags (decoded below) : 00000000
                               DVM Supported : 0
                               Coherent Walk : 0
[524h 1316   4]      Global Interrupt Offset : 0000003C
[528h 1320   4]      Context Interrupt Count : 0000000A
[52Ch 1324   4]     Context Interrupt Offset : 0000004C
[530h 1328   4]          PMU Interrupt Count : 00000004
[534h 1332   4]         PMU Interrupt Offset : 0000009C

[538h 1336   4]                      NSgIrpt : 000002C1
[53Ch 1340   4] NSgIrpt Flags (decoded below) : 00000000
                              Edge Triggered : 0
[540h 1344   4]                   NSgCfgIrpt : 00000000
[544h 1348   4] NSgCfgIrpt Flags (decoded below) : 00000000
                              Edge Triggered : 0
[548h 1352   8]            Context Interrupt : 00000001000002C8
[550h 1360   8]            Context Interrupt : 00000001000002C9
[558h 1368   8]            Context Interrupt : 00000001000002CA
[560h 1376   8]            Context Interrupt : 00000001000002CB
[568h 1384   8]            Context Interrupt : 00000001000002CC
[570h 1392   8]            Context Interrupt : 00000001000002CD
[578h 1400   8]            Context Interrupt : 00000001000002CE
[580h 1408   8]            Context Interrupt : 00000001000002CF
[588h 1416   8]            Context Interrupt : 00000001000002D0
[590h 1424   8]            Context Interrupt : 00000001000002DF
[598h 1432   8]                PMU Interrupt : 00000001000002C4
[5A0h 1440   8]                PMU Interrupt : 00000001000002C5
[5A8h 1448   8]                PMU Interrupt : 00000001000002C6
[5B0h 1456   8]                PMU Interrupt : 00000001000002C7

[5B8h 1464   1]                         Type : 02
[5B9h 1465   2]                       Length : 0038
[5BBh 1467   1]                     Revision : 00
[5BCh 1468   4]                     Reserved : 00000000
[5C0h 1472   4]                Mapping Count : 00000001
[5C4h 1476   4]               Mapping Offset : 00000024

[5C8h 1480   8]            Memory Properties : [IORT Memory Access Properties]
[5C8h 1480   4]              Cache Coherency : 00000001
[5CCh 1484   1]        Hints (decoded below) : 00
                                   Transient : 0
                              Write Allocate : 0
                               Read Allocate : 0
                                    Override : 0
[5CDh 1485   2]                     Reserved : 0000
[5CFh 1487   1] Memory Flags (decoded below) : 01
                                   Coherency : 1
                            Device Attribute : 0
[5D0h 1488   4]                ATS Attribute : 00000000
[5D4h 1492   4]           PCI Segment Number : 00000000
[5D8h 1496   1]            Memory Size Limit : 24
[5D9h 1497   3]                     Reserved : 000000

[5DCh 1500   4]                   Input base : 00000000
[5E0h 1504   4]                     ID Count : 0000FFFF
[5E4h 1508   4]                  Output Base : 00000000
[5E8h 1512   4]             Output Reference : 0000182C
[5ECh 1516   4]        Flags (decoded below) : 00000000
                              Single Mapping : 0

[5F0h 1520   1]                         Type : 02
[5F1h 1521   2]                       Length : 0038
[5F3h 1523   1]                     Revision : 00
[5F4h 1524   4]                     Reserved : 00000000
[5F8h 1528   4]                Mapping Count : 00000001
[5FCh 1532   4]               Mapping Offset : 00000024

[600h 1536   8]            Memory Properties : [IORT Memory Access Properties]
[600h 1536   4]              Cache Coherency : 00000001
[604h 1540   1]        Hints (decoded below) : 00
                                   Transient : 0
                              Write Allocate : 0
                               Read Allocate : 0
                                    Override : 0
[605h 1541   2]                     Reserved : 0000
[607h 1543   1] Memory Flags (decoded below) : 01
                                   Coherency : 1
                            Device Attribute : 0
[608h 1544   4]                ATS Attribute : 00000000
[60Ch 1548   4]           PCI Segment Number : 00000001
[610h 1552   1]            Memory Size Limit : 24
[611h 1553   3]                     Reserved : 000000

[614h 1556   4]                   Input base : 00000000
[618h 1560   4]                     ID Count : 0000FFFF
[61Ch 1564   4]                  Output Base : 00010000
[620h 1568   4]             Output Reference : 0000182C
[624h 1572   4]        Flags (decoded below) : 00000000
                              Single Mapping : 0

[628h 1576   1]                         Type : 02
[629h 1577   2]                       Length : 0038
[62Bh 1579   1]                     Revision : 00
[62Ch 1580   4]                     Reserved : 00000000
[630h 1584   4]                Mapping Count : 00000001
[634h 1588   4]               Mapping Offset : 00000024

[638h 1592   8]            Memory Properties : [IORT Memory Access Properties]
[638h 1592   4]              Cache Coherency : 00000001
[63Ch 1596   1]        Hints (decoded below) : 00
                                   Transient : 0
                              Write Allocate : 0
                               Read Allocate : 0
                                    Override : 0
[63Dh 1597   2]                     Reserved : 0000
[63Fh 1599   1] Memory Flags (decoded below) : 01
                                   Coherency : 1
                            Device Attribute : 0
[640h 1600   4]                ATS Attribute : 00000000
[644h 1604   4]           PCI Segment Number : 00000002
[648h 1608   1]            Memory Size Limit : 24
[649h 1609   3]                     Reserved : 000000

[64Ch 1612   4]                   Input base : 00000000
[650h 1616   4]                     ID Count : 0000FFFF
[654h 1620   4]                  Output Base : 00020000
[658h 1624   4]             Output Reference : 0000182C
[65Ch 1628   4]        Flags (decoded below) : 00000000
                              Single Mapping : 0

[660h 1632   1]                         Type : 02
[661h 1633   2]                       Length : 0038
[663h 1635   1]                     Revision : 00
[664h 1636   4]                     Reserved : 00000000
[668h 1640   4]                Mapping Count : 00000001
[66Ch 1644   4]               Mapping Offset : 00000024

[670h 1648   8]            Memory Properties : [IORT Memory Access Properties]
[670h 1648   4]              Cache Coherency : 00000001
[674h 1652   1]        Hints (decoded below) : 00
                                   Transient : 0
                              Write Allocate : 0
                               Read Allocate : 0
                                    Override : 0
[675h 1653   2]                     Reserved : 0000
[677h 1655   1] Memory Flags (decoded below) : 01
                                   Coherency : 1
                            Device Attribute : 0
[678h 1656   4]                ATS Attribute : 00000000
[67Ch 1660   4]           PCI Segment Number : 00000003
[680h 1664   1]            Memory Size Limit : 24
[681h 1665   3]                     Reserved : 000000

[684h 1668   4]                   Input base : 00000000
[688h 1672   4]                     ID Count : 0000FFFF
[68Ch 1676   4]                  Output Base : 00030000
[690h 1680   4]             Output Reference : 0000182C
[694h 1684   4]        Flags (decoded below) : 00000000
                              Single Mapping : 0

[698h 1688   1]                         Type : 02
[699h 1689   2]                       Length : 0038
[69Bh 1691   1]                     Revision : 00
[69Ch 1692   4]                     Reserved : 00000000
[6A0h 1696   4]                Mapping Count : 00000001
[6A4h 1700   4]               Mapping Offset : 00000024

[6A8h 1704   8]            Memory Properties : [IORT Memory Access Properties]
[6A8h 1704   4]              Cache Coherency : 00000001
[6ACh 1708   1]        Hints (decoded below) : 00
                                   Transient : 0
                              Write Allocate : 0
                               Read Allocate : 0
                                    Override : 0
[6ADh 1709   2]                     Reserved : 0000
[6AFh 1711   1] Memory Flags (decoded below) : 01
                                   Coherency : 1
                            Device Attribute : 0
[6B0h 1712   4]                ATS Attribute : 00000000
[6B4h 1716   4]           PCI Segment Number : 00000004
[6B8h 1720   1]            Memory Size Limit : 24
[6B9h 1721   3]                     Reserved : 000000

[6BCh 1724   4]                   Input base : 00000000
[6C0h 1728   4]                     ID Count : 0000FFFF
[6C4h 1732   4]                  Output Base : 00040000
[6C8h 1736   4]             Output Reference : 0000182C
[6CCh 1740   4]        Flags (decoded below) : 00000000
                              Single Mapping : 0

[6D0h 1744   1]                         Type : 02
[6D1h 1745   2]                       Length : 0038
[6D3h 1747   1]                     Revision : 00
[6D4h 1748   4]                     Reserved : 00000000
[6D8h 1752   4]                Mapping Count : 00000001
[6DCh 1756   4]               Mapping Offset : 00000024

[6E0h 1760   8]            Memory Properties : [IORT Memory Access Properties]
[6E0h 1760   4]              Cache Coherency : 00000001
[6E4h 1764   1]        Hints (decoded below) : 00
                                   Transient : 0
                              Write Allocate : 0
                               Read Allocate : 0
                                    Override : 0
[6E5h 1765   2]                     Reserved : 0000
[6E7h 1767   1] Memory Flags (decoded below) : 01
                                   Coherency : 1
                            Device Attribute : 0
[6E8h 1768   4]                ATS Attribute : 00000000
[6ECh 1772   4]           PCI Segment Number : 00000005
[6F0h 1776   1]            Memory Size Limit : 24
[6F1h 1777   3]                     Reserved : 000000

[6F4h 1780   4]                   Input base : 00000000
[6F8h 1784   4]                     ID Count : 0000FFFF
[6FCh 1788   4]                  Output Base : 00050000
[700h 1792   4]             Output Reference : 0000182C
[704h 1796   4]        Flags (decoded below) : 00000000
                              Single Mapping : 0

[708h 1800   1]                         Type : 02
[709h 1801   2]                       Length : 0038
[70Bh 1803   1]                     Revision : 00
[70Ch 1804   4]                     Reserved : 00000000
[710h 1808   4]                Mapping Count : 00000001
[714h 1812   4]               Mapping Offset : 00000024

[718h 1816   8]            Memory Properties : [IORT Memory Access Properties]
[718h 1816   4]              Cache Coherency : 00000001
[71Ch 1820   1]        Hints (decoded below) : 00
                                   Transient : 0
                              Write Allocate : 0
                               Read Allocate : 0
                                    Override : 0
[71Dh 1821   2]                     Reserved : 0000
[71Fh 1823   1] Memory Flags (decoded below) : 01
                                   Coherency : 1
                            Device Attribute : 0
[720h 1824   4]                ATS Attribute : 00000000
[724h 1828   4]           PCI Segment Number : 00000006
[728h 1832   1]            Memory Size Limit : 24
[729h 1833   3]                     Reserved : 000000

[72Ch 1836   4]                   Input base : 00000000
[730h 1840   4]                     ID Count : 0000FFFF
[734h 1844   4]                  Output Base : 00060000
[738h 1848   4]             Output Reference : 0000182C
[73Ch 1852   4]        Flags (decoded below) : 00000000
                              Single Mapping : 0

[740h 1856   1]                         Type : 01
[741h 1857   2]                       Length : 0565
[743h 1859   1]                     Revision : 00
[744h 1860   4]                     Reserved : 00000000
[748h 1864   4]                Mapping Count : 00000042
[74Ch 1868   4]               Mapping Offset : 0000003D

[750h 1872   4]                   Node Flags : 00000000
[754h 1876   8]            Memory Properties : [IORT Memory Access Properties]
[754h 1876   4]              Cache Coherency : 00000000
[758h 1880   1]        Hints (decoded below) : 00
                                   Transient : 0
                              Write Allocate : 0
                               Read Allocate : 0
                                    Override : 0
[759h 1881   2]                     Reserved : 0000
[75Bh 1883   1] Memory Flags (decoded below) : 00
                                   Coherency : 0
                            Device Attribute : 0
[75Ch 1884   1]            Memory Size Limit : 30
[75Dh 1885  10]                  Device Name : "\_SB.GPU0"
[767h 1895  22]                      Padding : \
    00 00 00 00 00 00 00 00 00 00 00 00 00 00 00 00 \
    00 00 00 00 00 00 

[77Dh 1917   4]                   Input base : 030A0000
[781h 1921   4]                     ID Count : 00000000
[785h 1925   4]                  Output Base : 00000002
[789h 1929   4]             Output Reference : 000004FC
[78Dh 1933   4]        Flags (decoded below) : 00000000
                              Single Mapping : 0

[791h 1937   4]                   Input base : 030A0001
[795h 1941   4]                     ID Count : 00000000
[799h 1945   4]                  Output Base : 00000402
[79Dh 1949   4]             Output Reference : 000004FC
[7A1h 1953   4]        Flags (decoded below) : 00000000
                              Single Mapping : 0

[7A5h 1957   4]                   Input base : 030A0002
[7A9h 1961   4]                     ID Count : 00000000
[7ADh 1965   4]                  Output Base : 00000802
[7B1h 1969   4]             Output Reference : 000004FC
[7B5h 1973   4]        Flags (decoded below) : 00000000
                              Single Mapping : 0

[7B9h 1977   4]                   Input base : 030A0003
[7BDh 1981   4]                     ID Count : 00000000
[7C1h 1985   4]                  Output Base : 00000C02
[7C5h 1989   4]             Output Reference : 000004FC
[7C9h 1993   4]        Flags (decoded below) : 00000000
                              Single Mapping : 0

[7CDh 1997   4]                   Input base : 03030000
[7D1h 2001   4]                     ID Count : 00000000
[7D5h 2005   4]                  Output Base : 00000000
[7D9h 2009   4]             Output Reference : 000004FC
[7DDh 2013   4]        Flags (decoded below) : 00000000
                              Single Mapping : 0

[7E1h 2017   4]                   Input base : 03030001
[7E5h 2021   4]                     ID Count : 00000000
[7E9h 2025   4]                  Output Base : 00000400
[7EDh 2029   4]             Output Reference : 000004FC
[7F1h 2033   4]        Flags (decoded below) : 00000000
                              Single Mapping : 0

[7F5h 2037   4]                   Input base : 03030002
[7F9h 2041   4]                     ID Count : 00000000
[7FDh 2045   4]                  Output Base : 00000800
[801h 2049   4]             Output Reference : 000004FC
[805h 2053   4]        Flags (decoded below) : 00000000
                              Single Mapping : 0

[809h 2057   4]                   Input base : 03030003
[80Dh 2061   4]                     ID Count : 00000000
[811h 2065   4]                  Output Base : 00000C00
[815h 2069   4]             Output Reference : 000004FC
[819h 2073   4]        Flags (decoded below) : 00000000
                              Single Mapping : 0

[81Dh 2077   4]                   Input base : 03030004
[821h 2081   4]                     ID Count : 00000000
[825h 2085   4]                  Output Base : 00000001
[829h 2089   4]             Output Reference : 000004FC
[82Dh 2093   4]        Flags (decoded below) : 00000000
                              Single Mapping : 0

[831h 2097   4]                   Input base : 03030005
[835h 2101   4]                     ID Count : 00000000
[839h 2105   4]                  Output Base : 00000401
[83Dh 2109   4]             Output Reference : 000004FC
[841h 2113   4]        Flags (decoded below) : 00000000
                              Single Mapping : 0

[845h 2117   4]                   Input base : 03030006
[849h 2121   4]                     ID Count : 00000000
[84Dh 2125   4]                  Output Base : 00000801
[851h 2129   4]             Output Reference : 000004FC
[855h 2133   4]        Flags (decoded below) : 00000000
                              Single Mapping : 0

[859h 2137   4]                   Input base : 03030007
[85Dh 2141   4]                     ID Count : 00000000
[861h 2145   4]                  Output Base : 00000C01
[865h 2149   4]             Output Reference : 000004FC
[869h 2153   4]        Flags (decoded below) : 00000000
                              Single Mapping : 0

[86Dh 2157   4]                   Input base : 03030008
[871h 2161   4]                     ID Count : 00000000
[875h 2165   4]                  Output Base : 00000004
[879h 2169   4]             Output Reference : 000004FC
[87Dh 2173   4]        Flags (decoded below) : 00000000
                              Single Mapping : 0

[881h 2177   4]                   Input base : 03030009
[885h 2181   4]                     ID Count : 00000000
[889h 2185   4]                  Output Base : 00000404
[88Dh 2189   4]             Output Reference : 000004FC
[891h 2193   4]        Flags (decoded below) : 00000000
                              Single Mapping : 0

[895h 2197   4]                   Input base : 0303000A
[899h 2201   4]                     ID Count : 00000000
[89Dh 2205   4]                  Output Base : 00000804
[8A1h 2209   4]             Output Reference : 000004FC
[8A5h 2213   4]        Flags (decoded below) : 00000000
                              Single Mapping : 0

[8A9h 2217   4]                   Input base : 0303000B
[8ADh 2221   4]                     ID Count : 00000000
[8B1h 2225   4]                  Output Base : 00000C04
[8B5h 2229   4]             Output Reference : 000004FC
[8B9h 2233   4]        Flags (decoded below) : 00000000
                              Single Mapping : 0

[8BDh 2237   4]                   Input base : 0303000C
[8C1h 2241   4]                     ID Count : 00000000
[8C5h 2245   4]                  Output Base : 00000005
[8C9h 2249   4]             Output Reference : 000004FC
[8CDh 2253   4]        Flags (decoded below) : 00000000
                              Single Mapping : 0

[8D1h 2257   4]                   Input base : 0303000D
[8D5h 2261   4]                     ID Count : 00000000
[8D9h 2265   4]                  Output Base : 00000405
[8DDh 2269   4]             Output Reference : 000004FC
[8E1h 2273   4]        Flags (decoded below) : 00000000
                              Single Mapping : 0

[8E5h 2277   4]                   Input base : 0303000E
[8E9h 2281   4]                     ID Count : 00000000
[8EDh 2285   4]                  Output Base : 00000805
[8F1h 2289   4]             Output Reference : 000004FC
[8F5h 2293   4]        Flags (decoded below) : 00000000
                              Single Mapping : 0

[8F9h 2297   4]                   Input base : 0303000F
[8FDh 2301   4]                     ID Count : 00000000
[901h 2305   4]                  Output Base : 00000C05
[905h 2309   4]             Output Reference : 000004FC
[909h 2313   4]        Flags (decoded below) : 00000000
                              Single Mapping : 0

[90Dh 2317   4]                   Input base : 00030000
[911h 2321   4]                     ID Count : 00000000
[915h 2325   4]                  Output Base : 00001000
[919h 2329   4]             Output Reference : 00000030
[91Dh 2333   4]        Flags (decoded below) : 00000000
                              Single Mapping : 0

[921h 2337   4]                   Input base : 00030001
[925h 2341   4]                     ID Count : 00000000
[929h 2345   4]                  Output Base : 00001002
[92Dh 2349   4]             Output Reference : 00000030
[931h 2353   4]        Flags (decoded below) : 00000000
                              Single Mapping : 0

[935h 2357   4]                   Input base : 00030002
[939h 2361   4]                     ID Count : 00000000
[93Dh 2365   4]                  Output Base : 00001400
[941h 2369   4]             Output Reference : 00000030
[945h 2373   4]        Flags (decoded below) : 00000000
                              Single Mapping : 0

[949h 2377   4]                   Input base : 00030003
[94Dh 2381   4]                     ID Count : 00000000
[951h 2385   4]                  Output Base : 00001402
[955h 2389   4]             Output Reference : 00000030
[959h 2393   4]        Flags (decoded below) : 00000000
                              Single Mapping : 0

[95Dh 2397   4]                   Input base : 00030004
[961h 2401   4]                     ID Count : 00000000
[965h 2405   4]                  Output Base : 00001800
[969h 2409   4]             Output Reference : 00000030
[96Dh 2413   4]        Flags (decoded below) : 00000000
                              Single Mapping : 0

[971h 2417   4]                   Input base : 00030005
[975h 2421   4]                     ID Count : 00000000
[979h 2425   4]                  Output Base : 00001802
[97Dh 2429   4]             Output Reference : 00000030
[981h 2433   4]        Flags (decoded below) : 00000000
                              Single Mapping : 0

[985h 2437   4]                   Input base : 00030006
[989h 2441   4]                     ID Count : 00000000
[98Dh 2445   4]                  Output Base : 00001C00
[991h 2449   4]             Output Reference : 00000030
[995h 2453   4]        Flags (decoded below) : 00000000
                              Single Mapping : 0

[999h 2457   4]                   Input base : 00030007
[99Dh 2461   4]                     ID Count : 00000000
[9A1h 2465   4]                  Output Base : 00001C02
[9A5h 2469   4]             Output Reference : 00000030
[9A9h 2473   4]        Flags (decoded below) : 00000000
                              Single Mapping : 0

[9ADh 2477   4]                   Input base : 000A0000
[9B1h 2481   4]                     ID Count : 00000000
[9B5h 2485   4]                  Output Base : 00001001
[9B9h 2489   4]             Output Reference : 00000030
[9BDh 2493   4]        Flags (decoded below) : 00000000
                              Single Mapping : 0

[9C1h 2497   4]                   Input base : 000A0001
[9C5h 2501   4]                     ID Count : 00000000
[9C9h 2505   4]                  Output Base : 00001401
[9CDh 2509   4]             Output Reference : 00000030
[9D1h 2513   4]        Flags (decoded below) : 00000000
                              Single Mapping : 0

[9D5h 2517   4]                   Input base : 000A0002
[9D9h 2521   4]                     ID Count : 00000000
[9DDh 2525   4]                  Output Base : 00001801
[9E1h 2529   4]             Output Reference : 00000030
[9E5h 2533   4]        Flags (decoded below) : 00000000
                              Single Mapping : 0

[9E9h 2537   4]                   Input base : 000A0003
[9EDh 2541   4]                     ID Count : 00000000
[9F1h 2545   4]                  Output Base : 00001C01
[9F5h 2549   4]             Output Reference : 00000030
[9F9h 2553   4]        Flags (decoded below) : 00000000
                              Single Mapping : 0

[9FDh 2557   4]                   Input base : 06030000
[A01h 2561   4]                     ID Count : 00000000
[A05h 2565   4]                  Output Base : 000029DC
[A09h 2569   4]             Output Reference : 00000030
[A0Dh 2573   4]        Flags (decoded below) : 00000000
                              Single Mapping : 0

[A11h 2577   4]                   Input base : 06030001
[A15h 2581   4]                     ID Count : 00000000
[A19h 2585   4]                  Output Base : 00002DDC
[A1Dh 2589   4]             Output Reference : 00000030
[A21h 2593   4]        Flags (decoded below) : 00000000
                              Single Mapping : 0

[A25h 2597   4]                   Input base : 06030002
[A29h 2601   4]                     ID Count : 00000000
[A2Dh 2605   4]                  Output Base : 000029FC
[A31h 2609   4]             Output Reference : 00000030
[A35h 2613   4]        Flags (decoded below) : 00000000
                              Single Mapping : 0

[A39h 2617   4]                   Input base : 06030003
[A3Dh 2621   4]                     ID Count : 00000000
[A41h 2625   4]                  Output Base : 00002DFC
[A45h 2629   4]             Output Reference : 00000030
[A49h 2633   4]        Flags (decoded below) : 00000000
                              Single Mapping : 0

[A4Dh 2637   4]                   Input base : 060A0000
[A51h 2641   4]                     ID Count : 00000000
[A55h 2645   4]                  Output Base : 000029DD
[A59h 2649   4]             Output Reference : 00000030
[A5Dh 2653   4]        Flags (decoded below) : 00000000
                              Single Mapping : 0

[A61h 2657   4]                   Input base : 060A0001
[A65h 2661   4]                     ID Count : 00000000
[A69h 2665   4]                  Output Base : 00002DDD
[A6Dh 2669   4]             Output Reference : 00000030
[A71h 2673   4]        Flags (decoded below) : 00000000
                              Single Mapping : 0

[A75h 2677   4]                   Input base : 060A0002
[A79h 2681   4]                     ID Count : 00000000
[A7Dh 2685   4]                  Output Base : 000029FD
[A81h 2689   4]             Output Reference : 00000030
[A85h 2693   4]        Flags (decoded below) : 00000000
                              Single Mapping : 0

[A89h 2697   4]                   Input base : 060A0003
[A8Dh 2701   4]                     ID Count : 00000000
[A91h 2705   4]                  Output Base : 00002DFD
[A95h 2709   4]             Output Reference : 00000030
[A99h 2713   4]        Flags (decoded below) : 00000000
                              Single Mapping : 0

[A9Dh 2717   4]                   Input base : 0C030000
[AA1h 2721   4]                     ID Count : 00000001
[AA5h 2725   4]                  Output Base : 00000584
[AA9h 2729   4]             Output Reference : 00000030
[AADh 2733   4]        Flags (decoded below) : 00000000
                              Single Mapping : 0

[AB1h 2737   4]                   Input base : 0C030002
[AB5h 2741   4]                     ID Count : 00000001
[AB9h 2745   4]                  Output Base : 00000594
[ABDh 2749   4]             Output Reference : 00000030
[AC1h 2753   4]        Flags (decoded below) : 00000000
                              Single Mapping : 0

[AC5h 2757   4]                   Input base : 0C030004
[AC9h 2761   4]                     ID Count : 00000001
[ACDh 2765   4]                  Output Base : 00000586
[AD1h 2769   4]             Output Reference : 00000030
[AD5h 2773   4]        Flags (decoded below) : 00000000
                              Single Mapping : 0

[AD9h 2777   4]                   Input base : 0C030006
[ADDh 2781   4]                     ID Count : 00000000
[AE1h 2785   4]                  Output Base : 00000592
[AE5h 2789   4]             Output Reference : 00000030
[AE9h 2793   4]        Flags (decoded below) : 00000000
                              Single Mapping : 0

[AEDh 2797   4]                   Input base : 0C030007
[AF1h 2801   4]                     ID Count : 00000003
[AF5h 2805   4]                  Output Base : 00000596
[AF9h 2809   4]             Output Reference : 00000030
[AFDh 2813   4]        Flags (decoded below) : 00000000
                              Single Mapping : 0

[B01h 2817   4]                   Input base : 0C03000B
[B05h 2821   4]                     ID Count : 00000000
[B09h 2825   4]                  Output Base : 0000059F
[B0Dh 2829   4]             Output Reference : 00000030
[B11h 2833   4]        Flags (decoded below) : 00000000
                              Single Mapping : 0

[B15h 2837   4]                   Input base : 0C090000
[B19h 2841   4]                     ID Count : 00000000
[B1Dh 2845   4]                  Output Base : 00000593
[B21h 2849   4]             Output Reference : 00000030
[B25h 2853   4]        Flags (decoded below) : 00000000
                              Single Mapping : 0

[B29h 2857   4]                   Input base : 0C090001
[B2Dh 2861   4]                     ID Count : 00000002
[B31h 2865   4]                  Output Base : 0000059C
[B35h 2869   4]             Output Reference : 00000030
[B39h 2873   4]        Flags (decoded below) : 00000000
                              Single Mapping : 0

[B3Dh 2877   4]                   Input base : 04030000
[B41h 2881   4]                     ID Count : 00000000
[B45h 2885   4]                  Output Base : 00002A00
[B49h 2889   4]             Output Reference : 00000030
[B4Dh 2893   4]        Flags (decoded below) : 00000000
                              Single Mapping : 0

[B51h 2897   4]                   Input base : 04030001
[B55h 2901   4]                     ID Count : 00000000
[B59h 2905   4]                  Output Base : 00002E00
[B5Dh 2909   4]             Output Reference : 00000030
[B61h 2913   4]        Flags (decoded below) : 00000000
                              Single Mapping : 0

[B65h 2917   4]                   Input base : 04030002
[B69h 2921   4]                     ID Count : 00000000
[B6Dh 2925   4]                  Output Base : 00002A20
[B71h 2929   4]             Output Reference : 00000030
[B75h 2933   4]        Flags (decoded below) : 00000000
                              Single Mapping : 0

[B79h 2937   4]                   Input base : 04030003
[B7Dh 2941   4]                     ID Count : 00000000
[B81h 2945   4]                  Output Base : 00002E20
[B85h 2949   4]             Output Reference : 00000030
[B89h 2953   4]        Flags (decoded below) : 00000000
                              Single Mapping : 0

[B8Dh 2957   4]                   Input base : 04030004
[B91h 2961   4]                     ID Count : 00000000
[B95h 2965   4]                  Output Base : 00002A07
[B99h 2969   4]             Output Reference : 00000030
[B9Dh 2973   4]        Flags (decoded below) : 00000000
                              Single Mapping : 0

[BA1h 2977   4]                   Input base : 04030005
[BA5h 2981   4]                     ID Count : 00000000
[BA9h 2985   4]                  Output Base : 00002E07
[BADh 2989   4]             Output Reference : 00000030
[BB1h 2993   4]        Flags (decoded below) : 00000000
                              Single Mapping : 0

[BB5h 2997   4]                   Input base : 04090000
[BB9h 3001   4]                     ID Count : 00000000
[BBDh 3005   4]                  Output Base : 00002A01
[BC1h 3009   4]             Output Reference : 00000030
[BC5h 3013   4]        Flags (decoded below) : 00000000
                              Single Mapping : 0

[BC9h 3017   4]                   Input base : 04090001
[BCDh 3021   4]                     ID Count : 00000000
[BD1h 3025   4]                  Output Base : 00002A05
[BD5h 3029   4]             Output Reference : 00000030
[BD9h 3033   4]        Flags (decoded below) : 00000000
                              Single Mapping : 0

[BDDh 3037   4]                   Input base : 04090002
[BE1h 3041   4]                     ID Count : 00000000
[BE5h 3045   4]                  Output Base : 00002E01
[BE9h 3049   4]             Output Reference : 00000030
[BEDh 3053   4]        Flags (decoded below) : 00000000
                              Single Mapping : 0

[BF1h 3057   4]                   Input base : 04090003
[BF5h 3061   4]                     ID Count : 00000000
[BF9h 3065   4]                  Output Base : 00002E05
[BFDh 3069   4]             Output Reference : 00000030
[C01h 3073   4]        Flags (decoded below) : 00000000
                              Single Mapping : 0

[C05h 3077   4]                   Input base : 040A0000
[C09h 3081   4]                     ID Count : 00000000
[C0Dh 3085   4]                  Output Base : 00002A03
[C11h 3089   4]             Output Reference : 00000030
[C15h 3093   4]        Flags (decoded below) : 00000000
                              Single Mapping : 0

[C19h 3097   4]                   Input base : 040A0001
[C1Dh 3101   4]                     ID Count : 00000000
[C21h 3105   4]                  Output Base : 00002E03
[C25h 3109   4]             Output Reference : 00000030
[C29h 3113   4]        Flags (decoded below) : 00000000
                              Single Mapping : 0

[C2Dh 3117   4]                   Input base : 040A0002
[C31h 3121   4]                     ID Count : 00000000
[C35h 3125   4]                  Output Base : 00002A23
[C39h 3129   4]             Output Reference : 00000030
[C3Dh 3133   4]        Flags (decoded below) : 00000000
                              Single Mapping : 0

[C41h 3137   4]                   Input base : 040A0003
[C45h 3141   4]                     ID Count : 00000000
[C49h 3145   4]                  Output Base : 00002E23
[C4Dh 3149   4]             Output Reference : 00000030
[C51h 3153   4]        Flags (decoded below) : 00000000
                              Single Mapping : 0

[C55h 3157   4]                   Input base : 040B0000
[C59h 3161   4]                     ID Count : 00000000
[C5Dh 3165   4]                  Output Base : 00002A04
[C61h 3169   4]             Output Reference : 00000030
[C65h 3173   4]        Flags (decoded below) : 00000000
                              Single Mapping : 0

[C69h 3177   4]                   Input base : 040B0001
[C6Dh 3181   4]                     ID Count : 00000000
[C71h 3185   4]                  Output Base : 00002E04
[C75h 3189   4]             Output Reference : 00000030
[C79h 3193   4]        Flags (decoded below) : 00000000
                              Single Mapping : 0

[C7Dh 3197   4]                   Input base : 040B0002
[C81h 3201   4]                     ID Count : 00000000
[C85h 3205   4]                  Output Base : 00002A24
[C89h 3209   4]             Output Reference : 00000030
[C8Dh 3213   4]        Flags (decoded below) : 00000000
                              Single Mapping : 0

[C91h 3217   4]                   Input base : 040B0003
[C95h 3221   4]                     ID Count : 00000000
[C99h 3225   4]                  Output Base : 00002E24
[C9Dh 3229   4]             Output Reference : 00000030
[CA1h 3233   4]        Flags (decoded below) : 00000000
                              Single Mapping : 0

[CA5h 3237   1]                         Type : 01
[CA6h 3238   2]                       Length : 008D
[CA8h 3240   1]                     Revision : 00
[CA9h 3241   4]                     Reserved : 00000000
[CADh 3245   4]                Mapping Count : 00000004
[CB1h 3249   4]               Mapping Offset : 0000003D

[CB5h 3253   4]                   Node Flags : 00000000
[CB9h 3257   8]            Memory Properties : [IORT Memory Access Properties]
[CB9h 3257   4]              Cache Coherency : 00000000
[CBDh 3261   1]        Hints (decoded below) : 00
                                   Transient : 0
                              Write Allocate : 0
                               Read Allocate : 0
                                    Override : 0
[CBEh 3262   2]                     Reserved : 0000
[CC0h 3264   1] Memory Flags (decoded below) : 00
                                   Coherency : 0
                            Device Attribute : 0
[CC1h 3265   1]            Memory Size Limit : 24
[CC2h 3266  10]                  Device Name : "\_SB.JPGE"
[CCCh 3276  22]                      Padding : \
    00 00 00 00 00 00 00 00 00 00 00 00 00 00 00 00 \
    00 00 00 00 00 00 

[CE2h 3298   4]                   Input base : 02030000
[CE6h 3302   4]                     ID Count : 00000000
[CEAh 3306   4]                  Output Base : 00002940
[CEEh 3310   4]             Output Reference : 00000030
[CF2h 3314   4]        Flags (decoded below) : 00000000
                              Single Mapping : 0

[CF6h 3318   4]                   Input base : 02030001
[CFAh 3322   4]                     ID Count : 00000000
[CFEh 3326   4]                  Output Base : 00002960
[D02h 3330   4]             Output Reference : 00000030
[D06h 3334   4]        Flags (decoded below) : 00000000
                              Single Mapping : 0

[D0Ah 3338   4]                   Input base : 02030002
[D0Eh 3342   4]                     ID Count : 00000000
[D12h 3346   4]                  Output Base : 00002D40
[D16h 3350   4]             Output Reference : 00000030
[D1Ah 3354   4]        Flags (decoded below) : 00000000
                              Single Mapping : 0

[D1Eh 3358   4]                   Input base : 02030003
[D22h 3362   4]                     ID Count : 00000000
[D26h 3366   4]                  Output Base : 00002D60
[D2Ah 3370   4]             Output Reference : 00000030
[D2Eh 3374   4]        Flags (decoded below) : 00000000
                              Single Mapping : 0

[D32h 3378   1]                         Type : 01
[D33h 3379   2]                       Length : 04C5
[D35h 3381   1]                     Revision : 00
[D36h 3382   4]                     Reserved : 00000000
[D3Ah 3386   4]                Mapping Count : 0000003A
[D3Eh 3390   4]               Mapping Offset : 0000003D

[D42h 3394   4]                   Node Flags : 00000000
[D46h 3398   8]            Memory Properties : [IORT Memory Access Properties]
[D46h 3398   4]              Cache Coherency : 00000000
[D4Ah 3402   1]        Hints (decoded below) : 00
                                   Transient : 0
                              Write Allocate : 0
                               Read Allocate : 0
                                    Override : 0
[D4Bh 3403   2]                     Reserved : 0000
[D4Dh 3405   1] Memory Flags (decoded below) : 00
                                   Coherency : 0
                            Device Attribute : 0
[D4Eh 3406   1]            Memory Size Limit : 24
[D4Fh 3407  10]                  Device Name : "\_SB.ARPC"
[D59h 3417  22]                      Padding : \
    00 00 00 00 00 00 00 00 00 00 00 00 00 00 00 00 \
    00 00 00 00 00 00 

[D6Fh 3439   4]                   Input base : 17030034
[D73h 3443   4]                     ID Count : 00000000
[D77h 3447   4]                  Output Base : 00000C03
[D7Bh 3451   4]             Output Reference : 00000030
[D7Fh 3455   4]        Flags (decoded below) : 00000000
                              Single Mapping : 0

[D83h 3459   4]                   Input base : 17030035
[D87h 3463   4]                     ID Count : 00000000
[D8Bh 3467   4]                  Output Base : 00000C04
[D8Fh 3471   4]             Output Reference : 00000030
[D93h 3475   4]        Flags (decoded below) : 00000000
                              Single Mapping : 0

[D97h 3479   4]                   Input base : 17030036
[D9Bh 3483   4]                     ID Count : 00000000
[D9Fh 3487   4]                  Output Base : 00000C05
[DA3h 3491   4]             Output Reference : 00000030
[DA7h 3495   4]        Flags (decoded below) : 00000000
                              Single Mapping : 0

[DABh 3499   4]                   Input base : 17030000
[DAFh 3503   4]                     ID Count : 00000000
[DB3h 3507   4]                  Output Base : 00003181
[DB7h 3511   4]             Output Reference : 00000030
[DBBh 3515   4]        Flags (decoded below) : 00000000
                              Single Mapping : 0

[DBFh 3519   4]                   Input base : 17030001
[DC3h 3523   4]                     ID Count : 00000000
[DC7h 3527   4]                  Output Base : 000031A1
[DCBh 3531   4]             Output Reference : 00000030
[DCFh 3535   4]        Flags (decoded below) : 00000000
                              Single Mapping : 0

[DD3h 3539   4]                   Input base : 17030002
[DD7h 3543   4]                     ID Count : 00000000
[DDBh 3547   4]                  Output Base : 00003581
[DDFh 3551   4]             Output Reference : 00000030
[DE3h 3555   4]        Flags (decoded below) : 00000000
                              Single Mapping : 0

[DE7h 3559   4]                   Input base : 17030003
[DEBh 3563   4]                     ID Count : 00000000
[DEFh 3567   4]                  Output Base : 000035A1
[DF3h 3571   4]             Output Reference : 00000030
[DF7h 3575   4]        Flags (decoded below) : 00000000
                              Single Mapping : 0

[DFBh 3579   4]                   Input base : 17030004
[DFFh 3583   4]                     ID Count : 00000000
[E03h 3587   4]                  Output Base : 00003182
[E07h 3591   4]             Output Reference : 00000030
[E0Bh 3595   4]        Flags (decoded below) : 00000000
                              Single Mapping : 0

[E0Fh 3599   4]                   Input base : 17030005
[E13h 3603   4]                     ID Count : 00000000
[E17h 3607   4]                  Output Base : 000031A2
[E1Bh 3611   4]             Output Reference : 00000030
[E1Fh 3615   4]        Flags (decoded below) : 00000000
                              Single Mapping : 0

[E23h 3619   4]                   Input base : 17030006
[E27h 3623   4]                     ID Count : 00000000
[E2Bh 3627   4]                  Output Base : 00003582
[E2Fh 3631   4]             Output Reference : 00000030
[E33h 3635   4]        Flags (decoded below) : 00000000
                              Single Mapping : 0

[E37h 3639   4]                   Input base : 17030007
[E3Bh 3643   4]                     ID Count : 00000000
[E3Fh 3647   4]                  Output Base : 000035A2
[E43h 3651   4]             Output Reference : 00000030
[E47h 3655   4]        Flags (decoded below) : 00000000
                              Single Mapping : 0

[E4Bh 3659   4]                   Input base : 17030008
[E4Fh 3663   4]                     ID Count : 00000000
[E53h 3667   4]                  Output Base : 00003183
[E57h 3671   4]             Output Reference : 00000030
[E5Bh 3675   4]        Flags (decoded below) : 00000000
                              Single Mapping : 0

[E5Fh 3679   4]                   Input base : 17030009
[E63h 3683   4]                     ID Count : 00000000
[E67h 3687   4]                  Output Base : 000031A3
[E6Bh 3691   4]             Output Reference : 00000030
[E6Fh 3695   4]        Flags (decoded below) : 00000000
                              Single Mapping : 0

[E73h 3699   4]                   Input base : 1703000A
[E77h 3703   4]                     ID Count : 00000000
[E7Bh 3707   4]                  Output Base : 00003583
[E7Fh 3711   4]             Output Reference : 00000030
[E83h 3715   4]        Flags (decoded below) : 00000000
                              Single Mapping : 0

[E87h 3719   4]                   Input base : 1703000B
[E8Bh 3723   4]                     ID Count : 00000000
[E8Fh 3727   4]                  Output Base : 000035A3
[E93h 3731   4]             Output Reference : 00000030
[E97h 3735   4]        Flags (decoded below) : 00000000
                              Single Mapping : 0

[E9Bh 3739   4]                   Input base : 1703000C
[E9Fh 3743   4]                     ID Count : 00000000
[EA3h 3747   4]                  Output Base : 00003184
[EA7h 3751   4]             Output Reference : 00000030
[EABh 3755   4]        Flags (decoded below) : 00000000
                              Single Mapping : 0

[EAFh 3759   4]                   Input base : 1703000D
[EB3h 3763   4]                     ID Count : 00000000
[EB7h 3767   4]                  Output Base : 000031A4
[EBBh 3771   4]             Output Reference : 00000030
[EBFh 3775   4]        Flags (decoded below) : 00000000
                              Single Mapping : 0

[EC3h 3779   4]                   Input base : 1703000E
[EC7h 3783   4]                     ID Count : 00000000
[ECBh 3787   4]                  Output Base : 00003584
[ECFh 3791   4]             Output Reference : 00000030
[ED3h 3795   4]        Flags (decoded below) : 00000000
                              Single Mapping : 0

[ED7h 3799   4]                   Input base : 1703000F
[EDBh 3803   4]                     ID Count : 00000000
[EDFh 3807   4]                  Output Base : 000035A4
[EE3h 3811   4]             Output Reference : 00000030
[EE7h 3815   4]        Flags (decoded below) : 00000000
                              Single Mapping : 0

[EEBh 3819   4]                   Input base : 17030010
[EEFh 3823   4]                     ID Count : 00000000
[EF3h 3827   4]                  Output Base : 00003185
[EF7h 3831   4]             Output Reference : 00000030
[EFBh 3835   4]        Flags (decoded below) : 00000000
                              Single Mapping : 0

[EFFh 3839   4]                   Input base : 17030011
[F03h 3843   4]                     ID Count : 00000000
[F07h 3847   4]                  Output Base : 000031A5
[F0Bh 3851   4]             Output Reference : 00000030
[F0Fh 3855   4]        Flags (decoded below) : 00000000
                              Single Mapping : 0

[F13h 3859   4]                   Input base : 17030012
[F17h 3863   4]                     ID Count : 00000000
[F1Bh 3867   4]                  Output Base : 00003585
[F1Fh 3871   4]             Output Reference : 00000030
[F23h 3875   4]        Flags (decoded below) : 00000000
                              Single Mapping : 0

[F27h 3879   4]                   Input base : 17030013
[F2Bh 3883   4]                     ID Count : 00000000
[F2Fh 3887   4]                  Output Base : 000035A5
[F33h 3891   4]             Output Reference : 00000030
[F37h 3895   4]        Flags (decoded below) : 00000000
                              Single Mapping : 0

[F3Bh 3899   4]                   Input base : 17030014
[F3Fh 3903   4]                     ID Count : 00000000
[F43h 3907   4]                  Output Base : 00003186
[F47h 3911   4]             Output Reference : 00000030
[F4Bh 3915   4]        Flags (decoded below) : 00000000
                              Single Mapping : 0

[F4Fh 3919   4]                   Input base : 17030015
[F53h 3923   4]                     ID Count : 00000000
[F57h 3927   4]                  Output Base : 000031A6
[F5Bh 3931   4]             Output Reference : 00000030
[F5Fh 3935   4]        Flags (decoded below) : 00000000
                              Single Mapping : 0

[F63h 3939   4]                   Input base : 17030016
[F67h 3943   4]                     ID Count : 00000000
[F6Bh 3947   4]                  Output Base : 00003586
[F6Fh 3951   4]             Output Reference : 00000030
[F73h 3955   4]        Flags (decoded below) : 00000000
                              Single Mapping : 0

[F77h 3959   4]                   Input base : 17030017
[F7Bh 3963   4]                     ID Count : 00000000
[F7Fh 3967   4]                  Output Base : 000035A6
[F83h 3971   4]             Output Reference : 00000030
[F87h 3975   4]        Flags (decoded below) : 00000000
                              Single Mapping : 0

[F8Bh 3979   4]                   Input base : 17030018
[F8Fh 3983   4]                     ID Count : 00000000
[F93h 3987   4]                  Output Base : 00003187
[F97h 3991   4]             Output Reference : 00000030
[F9Bh 3995   4]        Flags (decoded below) : 00000000
                              Single Mapping : 0

[F9Fh 3999   4]                   Input base : 17030019
[FA3h 4003   4]                     ID Count : 00000000
[FA7h 4007   4]                  Output Base : 000031A7
[FABh 4011   4]             Output Reference : 00000030
[FAFh 4015   4]        Flags (decoded below) : 00000000
                              Single Mapping : 0

[FB3h 4019   4]                   Input base : 1703001A
[FB7h 4023   4]                     ID Count : 00000000
[FBBh 4027   4]                  Output Base : 00003587
[FBFh 4031   4]             Output Reference : 00000030
[FC3h 4035   4]        Flags (decoded below) : 00000000
                              Single Mapping : 0

[FC7h 4039   4]                   Input base : 1703001B
[FCBh 4043   4]                     ID Count : 00000000
[FCFh 4047   4]                  Output Base : 000035A7
[FD3h 4051   4]             Output Reference : 00000030
[FD7h 4055   4]        Flags (decoded below) : 00000000
                              Single Mapping : 0

[FDBh 4059   4]                   Input base : 1703001C
[FDFh 4063   4]                     ID Count : 00000000
[FE3h 4067   4]                  Output Base : 00003188
[FE7h 4071   4]             Output Reference : 00000030
[FEBh 4075   4]        Flags (decoded below) : 00000000
                              Single Mapping : 0

[FEFh 4079   4]                   Input base : 1703001D
[FF3h 4083   4]                     ID Count : 00000000
[FF7h 4087   4]                  Output Base : 000031A8
[FFBh 4091   4]             Output Reference : 00000030
[FFFh 4095   4]        Flags (decoded below) : 00000000
                              Single Mapping : 0

[1003h 4099   4]                   Input base : 1703001E
[1007h 4103   4]                     ID Count : 00000000
[100Bh 4107   4]                  Output Base : 00003588
[100Fh 4111   4]             Output Reference : 00000030
[1013h 4115   4]        Flags (decoded below) : 00000000
                              Single Mapping : 0

[1017h 4119   4]                   Input base : 1703001F
[101Bh 4123   4]                     ID Count : 00000000
[101Fh 4127   4]                  Output Base : 000035A8
[1023h 4131   4]             Output Reference : 00000030
[1027h 4135   4]        Flags (decoded below) : 00000000
                              Single Mapping : 0

[102Bh 4139   4]                   Input base : 17030020
[102Fh 4143   4]                     ID Count : 00000000
[1033h 4147   4]                  Output Base : 0000318B
[1037h 4151   4]             Output Reference : 00000030
[103Bh 4155   4]        Flags (decoded below) : 00000000
                              Single Mapping : 0

[103Fh 4159   4]                   Input base : 17030021
[1043h 4163   4]                     ID Count : 00000000
[1047h 4167   4]                  Output Base : 000031AB
[104Bh 4171   4]             Output Reference : 00000030
[104Fh 4175   4]        Flags (decoded below) : 00000000
                              Single Mapping : 0

[1053h 4179   4]                   Input base : 17030022
[1057h 4183   4]                     ID Count : 00000000
[105Bh 4187   4]                  Output Base : 0000358B
[105Fh 4191   4]             Output Reference : 00000030
[1063h 4195   4]        Flags (decoded below) : 00000000
                              Single Mapping : 0

[1067h 4199   4]                   Input base : 17030023
[106Bh 4203   4]                     ID Count : 00000000
[106Fh 4207   4]                  Output Base : 000035AB
[1073h 4211   4]             Output Reference : 00000030
[1077h 4215   4]        Flags (decoded below) : 00000000
                              Single Mapping : 0

[107Bh 4219   4]                   Input base : 17030024
[107Fh 4223   4]                     ID Count : 00000000
[1083h 4227   4]                  Output Base : 0000318C
[1087h 4231   4]             Output Reference : 00000030
[108Bh 4235   4]        Flags (decoded below) : 00000000
                              Single Mapping : 0

[108Fh 4239   4]                   Input base : 17030025
[1093h 4243   4]                     ID Count : 00000000
[1097h 4247   4]                  Output Base : 000031AC
[109Bh 4251   4]             Output Reference : 00000030
[109Fh 4255   4]        Flags (decoded below) : 00000000
                              Single Mapping : 0

[10A3h 4259   4]                   Input base : 17030026
[10A7h 4263   4]                     ID Count : 00000000
[10ABh 4267   4]                  Output Base : 0000358C
[10AFh 4271   4]             Output Reference : 00000030
[10B3h 4275   4]        Flags (decoded below) : 00000000
                              Single Mapping : 0

[10B7h 4279   4]                   Input base : 17030027
[10BBh 4283   4]                     ID Count : 00000000
[10BFh 4287   4]                  Output Base : 000035AC
[10C3h 4291   4]             Output Reference : 00000030
[10C7h 4295   4]        Flags (decoded below) : 00000000
                              Single Mapping : 0

[10CBh 4299   4]                   Input base : 17030028
[10CFh 4303   4]                     ID Count : 00000000
[10D3h 4307   4]                  Output Base : 0000318D
[10D7h 4311   4]             Output Reference : 00000030
[10DBh 4315   4]        Flags (decoded below) : 00000000
                              Single Mapping : 0

[10DFh 4319   4]                   Input base : 17030029
[10E3h 4323   4]                     ID Count : 00000000
[10E7h 4327   4]                  Output Base : 000031AD
[10EBh 4331   4]             Output Reference : 00000030
[10EFh 4335   4]        Flags (decoded below) : 00000000
                              Single Mapping : 0

[10F3h 4339   4]                   Input base : 1703002A
[10F7h 4343   4]                     ID Count : 00000000
[10FBh 4347   4]                  Output Base : 0000358D
[10FFh 4351   4]             Output Reference : 00000030
[1103h 4355   4]        Flags (decoded below) : 00000000
                              Single Mapping : 0

[1107h 4359   4]                   Input base : 1703002B
[110Bh 4363   4]                     ID Count : 00000000
[110Fh 4367   4]                  Output Base : 000035AD
[1113h 4371   4]             Output Reference : 00000030
[1117h 4375   4]        Flags (decoded below) : 00000000
                              Single Mapping : 0

[111Bh 4379   4]                   Input base : 1703002C
[111Fh 4383   4]                     ID Count : 00000000
[1123h 4387   4]                  Output Base : 0000318E
[1127h 4391   4]             Output Reference : 00000030
[112Bh 4395   4]        Flags (decoded below) : 00000000
                              Single Mapping : 0

[112Fh 4399   4]                   Input base : 1703002D
[1133h 4403   4]                     ID Count : 00000000
[1137h 4407   4]                  Output Base : 000031AE
[113Bh 4411   4]             Output Reference : 00000030
[113Fh 4415   4]        Flags (decoded below) : 00000000
                              Single Mapping : 0

[1143h 4419   4]                   Input base : 1703002E
[1147h 4423   4]                     ID Count : 00000000
[114Bh 4427   4]                  Output Base : 0000358E
[114Fh 4431   4]             Output Reference : 00000030
[1153h 4435   4]        Flags (decoded below) : 00000000
                              Single Mapping : 0

[1157h 4439   4]                   Input base : 1703002F
[115Bh 4443   4]                     ID Count : 00000000
[115Fh 4447   4]                  Output Base : 000035AE
[1163h 4451   4]             Output Reference : 00000030
[1167h 4455   4]        Flags (decoded below) : 00000000
                              Single Mapping : 0

[116Bh 4459   4]                   Input base : 17030030
[116Fh 4463   4]                     ID Count : 00000000
[1173h 4467   4]                  Output Base : 0000318F
[1177h 4471   4]             Output Reference : 00000030
[117Bh 4475   4]        Flags (decoded below) : 00000000
                              Single Mapping : 0

[117Fh 4479   4]                   Input base : 17030031
[1183h 4483   4]                     ID Count : 00000000
[1187h 4487   4]                  Output Base : 000031AF
[118Bh 4491   4]             Output Reference : 00000030
[118Fh 4495   4]        Flags (decoded below) : 00000000
                              Single Mapping : 0

[1193h 4499   4]                   Input base : 17030032
[1197h 4503   4]                     ID Count : 00000000
[119Bh 4507   4]                  Output Base : 0000358F
[119Fh 4511   4]             Output Reference : 00000030
[11A3h 4515   4]        Flags (decoded below) : 00000000
                              Single Mapping : 0

[11A7h 4519   4]                   Input base : 17030033
[11ABh 4523   4]                     ID Count : 00000000
[11AFh 4527   4]                  Output Base : 000035AF
[11B3h 4531   4]             Output Reference : 00000030
[11B7h 4535   4]        Flags (decoded below) : 00000000
                              Single Mapping : 0

[11BBh 4539   4]                   Input base : 17030037
[11BFh 4543   4]                     ID Count : 00000000
[11C3h 4547   4]                  Output Base : 00000521
[11C7h 4551   4]             Output Reference : 00000030
[11CBh 4555   4]        Flags (decoded below) : 00000000
                              Single Mapping : 0

[11CFh 4559   4]                   Input base : 17030038
[11D3h 4563   4]                     ID Count : 00000000
[11D7h 4567   4]                  Output Base : 00000522
[11DBh 4571   4]             Output Reference : 00000030
[11DFh 4575   4]        Flags (decoded below) : 00000000
                              Single Mapping : 0

[11E3h 4579   4]                   Input base : 17030039
[11E7h 4583   4]                     ID Count : 00000000
[11EBh 4587   4]                  Output Base : 00000523
[11EFh 4591   4]             Output Reference : 00000030
[11F3h 4595   4]        Flags (decoded below) : 00000000
                              Single Mapping : 0

[11F7h 4599   1]                         Type : 01
[11F8h 4600   2]                       Length : 00A1
[11FAh 4602   1]                     Revision : 00
[11FBh 4603   4]                     Reserved : 00000000
[11FFh 4607   4]                Mapping Count : 00000005
[1203h 4611   4]               Mapping Offset : 0000003D

[1207h 4615   4]                   Node Flags : 00000000
[120Bh 4619   8]            Memory Properties : [IORT Memory Access Properties]
[120Bh 4619   4]              Cache Coherency : 00000000
[120Fh 4623   1]        Hints (decoded below) : 00
                                   Transient : 0
                              Write Allocate : 0
                               Read Allocate : 0
                                    Override : 0
[1210h 4624   2]                     Reserved : 0000
[1212h 4626   1] Memory Flags (decoded below) : 00
                                   Coherency : 0
                            Device Attribute : 0
[1213h 4627   1]            Memory Size Limit : 24
[1214h 4628   9]                  Device Name : "\_SB.IPA"
[121Dh 4637  23]                      Padding : \
    00 00 00 00 00 00 00 00 00 00 00 00 00 00 00 00 \
    00 00 00 00 00 00 00 

[1234h 4660   4]                   Input base : 0B030000
[1238h 4664   4]                     ID Count : 00000000
[123Ch 4668   4]                  Output Base : 00000020
[1240h 4672   4]             Output Reference : 00000030
[1244h 4676   4]        Flags (decoded below) : 00000000
                              Single Mapping : 0

[1248h 4680   4]                   Input base : 0B030001
[124Ch 4684   4]                     ID Count : 00000000
[1250h 4688   4]                  Output Base : 00000021
[1254h 4692   4]             Output Reference : 00000030
[1258h 4696   4]        Flags (decoded below) : 00000000
                              Single Mapping : 0

[125Ch 4700   4]                   Input base : 0B030002
[1260h 4704   4]                     ID Count : 00000000
[1264h 4708   4]                  Output Base : 00000022
[1268h 4712   4]             Output Reference : 00000030
[126Ch 4716   4]        Flags (decoded below) : 00000000
                              Single Mapping : 0

[1270h 4720   4]                   Input base : 0B030003
[1274h 4724   4]                     ID Count : 00000000
[1278h 4728   4]                  Output Base : 00000023
[127Ch 4732   4]             Output Reference : 00000030
[1280h 4736   4]        Flags (decoded below) : 00000000
                              Single Mapping : 0

[1284h 4740   4]                   Input base : 0B030004
[1288h 4744   4]                     ID Count : 00000000
[128Ch 4748   4]                  Output Base : 00000024
[1290h 4752   4]             Output Reference : 00000030
[1294h 4756   4]        Flags (decoded below) : 00000000
                              Single Mapping : 0

[1298h 4760   1]                         Type : 01
[1299h 4761   2]                       Length : 0051
[129Bh 4763   1]                     Revision : 00
[129Ch 4764   4]                     Reserved : 00000000
[12A0h 4768   4]                Mapping Count : 00000001
[12A4h 4772   4]               Mapping Offset : 0000003D

[12A8h 4776   4]                   Node Flags : 00000000
[12ACh 4780   8]            Memory Properties : [IORT Memory Access Properties]
[12ACh 4780   4]              Cache Coherency : 00000000
[12B0h 4784   1]        Hints (decoded below) : 00
                                   Transient : 0
                              Write Allocate : 0
                               Read Allocate : 0
                                    Override : 0
[12B1h 4785   2]                     Reserved : 0000
[12B3h 4787   1] Memory Flags (decoded below) : 00
                                   Coherency : 0
                            Device Attribute : 0
[12B4h 4788   1]            Memory Size Limit : 24
[12B5h 4789  10]                  Device Name : "\_SB.USBA"
[12BFh 4799  22]                      Padding : \
    00 00 00 00 00 00 00 00 00 00 00 00 00 00 00 00 \
    00 00 00 00 00 00 

[12D5h 4821   4]                   Input base : 07030002
[12D9h 4825   4]                     ID Count : 00000000
[12DDh 4829   4]                  Output Base : 00000C0F
[12E1h 4833   4]             Output Reference : 00000030
[12E5h 4837   4]        Flags (decoded below) : 00000000
                              Single Mapping : 0

[12E9h 4841   1]                         Type : 01
[12EAh 4842   2]                       Length : 0065
[12ECh 4844   1]                     Revision : 00
[12EDh 4845   4]                     Reserved : 00000000
[12F1h 4849   4]                Mapping Count : 00000002
[12F5h 4853   4]               Mapping Offset : 0000003D

[12F9h 4857   4]                   Node Flags : 00000000
[12FDh 4861   8]            Memory Properties : [IORT Memory Access Properties]
[12FDh 4861   4]              Cache Coherency : 00000000
[1301h 4865   1]        Hints (decoded below) : 00
                                   Transient : 0
                              Write Allocate : 0
                               Read Allocate : 0
                                    Override : 0
[1302h 4866   2]                     Reserved : 0000
[1304h 4868   1] Memory Flags (decoded below) : 00
                                   Coherency : 0
                            Device Attribute : 0
[1305h 4869   1]            Memory Size Limit : 24
[1306h 4870  10]                  Device Name : "\_SB.QDSS"
[1310h 4880  22]                      Padding : \
    00 00 00 00 00 00 00 00 00 00 00 00 00 00 00 00 \
    00 00 00 00 00 00 

[1326h 4902   4]                   Input base : 19030000
[132Ah 4906   4]                     ID Count : 00000000
[132Eh 4910   4]                  Output Base : 000005A0
[1332h 4914   4]             Output Reference : 00000030
[1336h 4918   4]        Flags (decoded below) : 00000000
                              Single Mapping : 0

[133Ah 4922   4]                   Input base : 19030001
[133Eh 4926   4]                     ID Count : 00000000
[1342h 4930   4]                  Output Base : 000005C0
[1346h 4934   4]             Output Reference : 00000030
[134Ah 4938   4]        Flags (decoded below) : 00000000
                              Single Mapping : 0

[134Eh 4942   1]                         Type : 01
[134Fh 4943   2]                       Length : 0065
[1351h 4945   1]                     Revision : 00
[1352h 4946   4]                     Reserved : 00000000
[1356h 4950   4]                Mapping Count : 00000002
[135Ah 4954   4]               Mapping Offset : 0000003D

[135Eh 4958   4]                   Node Flags : 00000000
[1362h 4962   8]            Memory Properties : [IORT Memory Access Properties]
[1362h 4962   4]              Cache Coherency : 00000000
[1366h 4966   1]        Hints (decoded below) : 00
                                   Transient : 0
                              Write Allocate : 0
                               Read Allocate : 0
                                    Override : 0
[1367h 4967   2]                     Reserved : 0000
[1369h 4969   1] Memory Flags (decoded below) : 00
                                   Coherency : 0
                            Device Attribute : 0
[136Ah 4970   1]            Memory Size Limit : 24
[136Bh 4971  15]                  Device Name : "\_SB.ADSP.ADCM"
[137Ah 4986  17]                      Padding : \
    00 00 00 00 00 00 00 00 00 00 00 00 00 00 00 00 \
    00 

[138Bh 5003   4]                   Input base : 07030000
[138Fh 5007   4]                     ID Count : 00000000
[1393h 5011   4]                  Output Base : 00000C01
[1397h 5015   4]             Output Reference : 00000030
[139Bh 5019   4]        Flags (decoded below) : 00000000
                              Single Mapping : 0

[139Fh 5023   4]                   Input base : 07030001
[13A3h 5027   4]                     ID Count : 00000000
[13A7h 5031   4]                  Output Base : 00000C26
[13ABh 5035   4]             Output Reference : 00000030
[13AFh 5039   4]        Flags (decoded below) : 00000000
                              Single Mapping : 0

[13B3h 5043   1]                         Type : 01
[13B4h 5044   2]                       Length : 0065
[13B6h 5046   1]                     Revision : 00
[13B7h 5047   4]                     Reserved : 00000000
[13BBh 5051   4]                Mapping Count : 00000002
[13BFh 5055   4]               Mapping Offset : 0000003D

[13C3h 5059   4]                   Node Flags : 00000000
[13C7h 5063   8]            Memory Properties : [IORT Memory Access Properties]
[13C7h 5063   4]              Cache Coherency : 00000000
[13CBh 5067   1]        Hints (decoded below) : 00
                                   Transient : 0
                              Write Allocate : 0
                               Read Allocate : 0
                                    Override : 0
[13CCh 5068   2]                     Reserved : 0000
[13CEh 5070   1] Memory Flags (decoded below) : 00
                                   Coherency : 0
                            Device Attribute : 0
[13CFh 5071   1]            Memory Size Limit : 24
[13D0h 5072  10]                  Device Name : "\_SB.SDC2"
[13DAh 5082  22]                      Padding : \
    00 00 00 00 00 00 00 00 00 00 00 00 00 00 00 00 \
    00 00 00 00 00 00 

[13F0h 5104   4]                   Input base : 86030000
[13F4h 5108   4]                     ID Count : 00000000
[13F8h 5112   4]                  Output Base : 000004E0
[13FCh 5116   4]             Output Reference : 00000030
[1400h 5120   4]        Flags (decoded below) : 00000000
                              Single Mapping : 0

[1404h 5124   4]                   Input base : 86030001
[1408h 5128   4]                     ID Count : 00000000
[140Ch 5132   4]                  Output Base : 000000C0
[1410h 5136   4]             Output Reference : 00000030
[1414h 5140   4]        Flags (decoded below) : 00000000
                              Single Mapping : 0

[1418h 5144   1]                         Type : 01
[1419h 5145   2]                       Length : 0065
[141Bh 5147   1]                     Revision : 00
[141Ch 5148   4]                     Reserved : 00000000
[1420h 5152   4]                Mapping Count : 00000002
[1424h 5156   4]               Mapping Offset : 0000003D

[1428h 5160   4]                   Node Flags : 00000000
[142Ch 5164   8]            Memory Properties : [IORT Memory Access Properties]
[142Ch 5164   4]              Cache Coherency : 00000001
[1430h 5168   1]        Hints (decoded below) : 00
                                   Transient : 0
                              Write Allocate : 0
                               Read Allocate : 0
                                    Override : 0
[1431h 5169   2]                     Reserved : 0000
[1433h 5171   1] Memory Flags (decoded below) : 01
                                   Coherency : 1
                            Device Attribute : 0
[1434h 5172   1]            Memory Size Limit : 24
[1435h 5173  10]                  Device Name : "\_SB.UFS0"
[143Fh 5183  22]                      Padding : \
    00 00 00 00 00 00 00 00 00 00 00 00 00 00 00 00 \
    00 00 00 00 00 00 

[1455h 5205   4]                   Input base : 81030000
[1459h 5209   4]                     ID Count : 00000000
[145Dh 5213   4]                  Output Base : 000004A0
[1461h 5217   4]             Output Reference : 00000030
[1465h 5221   4]        Flags (decoded below) : 00000000
                              Single Mapping : 0

[1469h 5225   4]                   Input base : 81030001
[146Dh 5229   4]                     ID Count : 00000000
[1471h 5233   4]                  Output Base : 000000E0
[1475h 5237   4]             Output Reference : 00000030
[1479h 5241   4]        Flags (decoded below) : 00000000
                              Single Mapping : 0

[147Dh 5245   1]                         Type : 01
[147Eh 5246   2]                       Length : 0051
[1480h 5248   1]                     Revision : 00
[1481h 5249   4]                     Reserved : 00000000
[1485h 5253   4]                Mapping Count : 00000001
[1489h 5257   4]               Mapping Offset : 0000003D

[148Dh 5261   4]                   Node Flags : 00000000
[1491h 5265   8]            Memory Properties : [IORT Memory Access Properties]
[1491h 5265   4]              Cache Coherency : 00000000
[1495h 5269   1]        Hints (decoded below) : 00
                                   Transient : 0
                              Write Allocate : 0
                               Read Allocate : 0
                                    Override : 0
[1496h 5270   2]                     Reserved : 0000
[1498h 5272   1] Memory Flags (decoded below) : 00
                                   Coherency : 0
                            Device Attribute : 0
[1499h 5273   1]            Memory Size Limit : 24
[149Ah 5274  10]                  Device Name : "\_SB.URS0"
[14A4h 5284  22]                      Padding : \
    00 00 00 00 00 00 00 00 00 00 00 00 00 00 00 00 \
    00 00 00 00 00 00 

[14BAh 5306   4]                   Input base : 80030000
[14BEh 5310   4]                     ID Count : 00000000
[14C2h 5314   4]                  Output Base : 00000820
[14C6h 5318   4]             Output Reference : 00000030
[14CAh 5322   4]        Flags (decoded below) : 00000000
                              Single Mapping : 0

[14CEh 5326   1]                         Type : 01
[14CFh 5327   2]                       Length : 0051
[14D1h 5329   1]                     Revision : 00
[14D2h 5330   4]                     Reserved : 00000000
[14D6h 5334   4]                Mapping Count : 00000001
[14DAh 5338   4]               Mapping Offset : 0000003D

[14DEh 5342   4]                   Node Flags : 00000000
[14E2h 5346   8]            Memory Properties : [IORT Memory Access Properties]
[14E2h 5346   4]              Cache Coherency : 00000000
[14E6h 5350   1]        Hints (decoded below) : 00
                                   Transient : 0
                              Write Allocate : 0
                               Read Allocate : 0
                                    Override : 0
[14E7h 5351   2]                     Reserved : 0000
[14E9h 5353   1] Memory Flags (decoded below) : 00
                                   Coherency : 0
                            Device Attribute : 0
[14EAh 5354   1]            Memory Size Limit : 24
[14EBh 5355  10]                  Device Name : "\_SB.URS1"
[14F5h 5365  22]                      Padding : \
    00 00 00 00 00 00 00 00 00 00 00 00 00 00 00 00 \
    00 00 00 00 00 00 

[150Bh 5387   4]                   Input base : 80030001
[150Fh 5391   4]                     ID Count : 00000000
[1513h 5395   4]                  Output Base : 00000860
[1517h 5399   4]             Output Reference : 00000030
[151Bh 5403   4]        Flags (decoded below) : 00000000
                              Single Mapping : 0

[151Fh 5407   1]                         Type : 01
[1520h 5408   2]                       Length : 030D
[1522h 5410   1]                     Revision : 00
[1523h 5411   4]                     Reserved : 00000000
[1527h 5415   4]                Mapping Count : 00000024
[152Bh 5419   4]               Mapping Offset : 0000003D

[152Fh 5423   4]                   Node Flags : 00000000
[1533h 5427   8]            Memory Properties : [IORT Memory Access Properties]
[1533h 5427   4]              Cache Coherency : 00000000
[1537h 5431   1]        Hints (decoded below) : 00
                                   Transient : 0
                              Write Allocate : 0
                               Read Allocate : 0
                                    Override : 0
[1538h 5432   2]                     Reserved : 0000
[153Ah 5434   1] Memory Flags (decoded below) : 00
                                   Coherency : 0
                            Device Attribute : 0
[153Bh 5435   1]            Memory Size Limit : 24
[153Ch 5436  15]                  Device Name : "\_SB.GPU0.AVS0"
[154Bh 5451  17]                      Padding : \
    00 00 00 00 00 00 00 00 00 00 00 00 00 00 00 00 \
    00 

[155Ch 5468   4]                   Input base : 01030000
[1560h 5472   4]                     ID Count : 00000000
[1564h 5476   4]                  Output Base : 00002800
[1568h 5480   4]             Output Reference : 00000030
[156Ch 5484   4]        Flags (decoded below) : 00000000
                              Single Mapping : 0

[1570h 5488   4]                   Input base : 01030001
[1574h 5492   4]                     ID Count : 00000000
[1578h 5496   4]                  Output Base : 00002820
[157Ch 5500   4]             Output Reference : 00000030
[1580h 5504   4]        Flags (decoded below) : 00000000
                              Single Mapping : 0

[1584h 5508   4]                   Input base : 01030002
[1588h 5512   4]                     ID Count : 00000000
[158Ch 5516   4]                  Output Base : 00002C00
[1590h 5520   4]             Output Reference : 00000030
[1594h 5524   4]        Flags (decoded below) : 00000000
                              Single Mapping : 0

[1598h 5528   4]                   Input base : 01030003
[159Ch 5532   4]                     ID Count : 00000000
[15A0h 5536   4]                  Output Base : 00002C20
[15A4h 5540   4]             Output Reference : 00000030
[15A8h 5544   4]        Flags (decoded below) : 00000000
                              Single Mapping : 0

[15ACh 5548   4]                   Input base : 01030004
[15B0h 5552   4]                     ID Count : 00000000
[15B4h 5556   4]                  Output Base : 00002840
[15B8h 5560   4]             Output Reference : 00000030
[15BCh 5564   4]        Flags (decoded below) : 00000000
                              Single Mapping : 0

[15C0h 5568   4]                   Input base : 01030005
[15C4h 5572   4]                     ID Count : 00000000
[15C8h 5576   4]                  Output Base : 00002C40
[15CCh 5580   4]             Output Reference : 00000030
[15D0h 5584   4]        Flags (decoded below) : 00000000
                              Single Mapping : 0

[15D4h 5588   4]                   Input base : 01030006
[15D8h 5592   4]                     ID Count : 00000000
[15DCh 5596   4]                  Output Base : 000028A2
[15E0h 5600   4]             Output Reference : 00000030
[15E4h 5604   4]        Flags (decoded below) : 00000000
                              Single Mapping : 0

[15E8h 5608   4]                   Input base : 01030007
[15ECh 5612   4]                     ID Count : 00000000
[15F0h 5616   4]                  Output Base : 00002CA2
[15F4h 5620   4]             Output Reference : 00000030
[15F8h 5624   4]        Flags (decoded below) : 00000000
                              Single Mapping : 0

[15FCh 5628   4]                   Input base : 01030008
[1600h 5632   4]                     ID Count : 00000000
[1604h 5636   4]                  Output Base : 00002000
[1608h 5640   4]             Output Reference : 00000030
[160Ch 5644   4]        Flags (decoded below) : 00000000
                              Single Mapping : 0

[1610h 5648   4]                   Input base : 01030009
[1614h 5652   4]                     ID Count : 00000000
[1618h 5656   4]                  Output Base : 00002020
[161Ch 5660   4]             Output Reference : 00000030
[1620h 5664   4]        Flags (decoded below) : 00000000
                              Single Mapping : 0

[1624h 5668   4]                   Input base : 0103000A
[1628h 5672   4]                     ID Count : 00000000
[162Ch 5676   4]                  Output Base : 00002040
[1630h 5680   4]             Output Reference : 00000030
[1634h 5684   4]        Flags (decoded below) : 00000000
                              Single Mapping : 0

[1638h 5688   4]                   Input base : 0103000B
[163Ch 5692   4]                     ID Count : 00000000
[1640h 5696   4]                  Output Base : 00002060
[1644h 5700   4]             Output Reference : 00000030
[1648h 5704   4]        Flags (decoded below) : 00000000
                              Single Mapping : 0

[164Ch 5708   4]                   Input base : 0103000C
[1650h 5712   4]                     ID Count : 00000000
[1654h 5716   4]                  Output Base : 00002080
[1658h 5720   4]             Output Reference : 00000030
[165Ch 5724   4]        Flags (decoded below) : 00000000
                              Single Mapping : 0

[1660h 5728   4]                   Input base : 0103000D
[1664h 5732   4]                     ID Count : 00000000
[1668h 5736   4]                  Output Base : 000020A0
[166Ch 5740   4]             Output Reference : 00000030
[1670h 5744   4]        Flags (decoded below) : 00000000
                              Single Mapping : 0

[1674h 5748   4]                   Input base : 0103000E
[1678h 5752   4]                     ID Count : 00000000
[167Ch 5756   4]                  Output Base : 000020C0
[1680h 5760   4]             Output Reference : 00000030
[1684h 5764   4]        Flags (decoded below) : 00000000
                              Single Mapping : 0

[1688h 5768   4]                   Input base : 0103000F
[168Ch 5772   4]                     ID Count : 00000000
[1690h 5776   4]                  Output Base : 000020E0
[1694h 5780   4]             Output Reference : 00000030
[1698h 5784   4]        Flags (decoded below) : 00000000
                              Single Mapping : 0

[169Ch 5788   4]                   Input base : 01030010
[16A0h 5792   4]                     ID Count : 00000000
[16A4h 5796   4]                  Output Base : 00002400
[16A8h 5800   4]             Output Reference : 00000030
[16ACh 5804   4]        Flags (decoded below) : 00000000
                              Single Mapping : 0

[16B0h 5808   4]                   Input base : 01030011
[16B4h 5812   4]                     ID Count : 00000000
[16B8h 5816   4]                  Output Base : 00002420
[16BCh 5820   4]             Output Reference : 00000030
[16C0h 5824   4]        Flags (decoded below) : 00000000
                              Single Mapping : 0

[16C4h 5828   4]                   Input base : 01030012
[16C8h 5832   4]                     ID Count : 00000000
[16CCh 5836   4]                  Output Base : 00002440
[16D0h 5840   4]             Output Reference : 00000030
[16D4h 5844   4]        Flags (decoded below) : 00000000
                              Single Mapping : 0

[16D8h 5848   4]                   Input base : 01030013
[16DCh 5852   4]                     ID Count : 00000000
[16E0h 5856   4]                  Output Base : 00002460
[16E4h 5860   4]             Output Reference : 00000030
[16E8h 5864   4]        Flags (decoded below) : 00000000
                              Single Mapping : 0

[16ECh 5868   4]                   Input base : 01030014
[16F0h 5872   4]                     ID Count : 00000000
[16F4h 5876   4]                  Output Base : 00002480
[16F8h 5880   4]             Output Reference : 00000030
[16FCh 5884   4]        Flags (decoded below) : 00000000
                              Single Mapping : 0

[1700h 5888   4]                   Input base : 01030015
[1704h 5892   4]                     ID Count : 00000000
[1708h 5896   4]                  Output Base : 000024A0
[170Ch 5900   4]             Output Reference : 00000030
[1710h 5904   4]        Flags (decoded below) : 00000000
                              Single Mapping : 0

[1714h 5908   4]                   Input base : 01030016
[1718h 5912   4]                     ID Count : 00000000
[171Ch 5916   4]                  Output Base : 000024C0
[1720h 5920   4]             Output Reference : 00000030
[1724h 5924   4]        Flags (decoded below) : 00000000
                              Single Mapping : 0

[1728h 5928   4]                   Input base : 01030017
[172Ch 5932   4]                     ID Count : 00000000
[1730h 5936   4]                  Output Base : 000024E0
[1734h 5940   4]             Output Reference : 00000030
[1738h 5944   4]        Flags (decoded below) : 00000000
                              Single Mapping : 0

[173Ch 5948   4]                   Input base : 01030018
[1740h 5952   4]                     ID Count : 00000000
[1744h 5956   4]                  Output Base : 000028C0
[1748h 5960   4]             Output Reference : 00000030
[174Ch 5964   4]        Flags (decoded below) : 00000000
                              Single Mapping : 0

[1750h 5968   4]                   Input base : 01030019
[1754h 5972   4]                     ID Count : 00000000
[1758h 5976   4]                  Output Base : 000028E0
[175Ch 5980   4]             Output Reference : 00000030
[1760h 5984   4]        Flags (decoded below) : 00000000
                              Single Mapping : 0

[1764h 5988   4]                   Input base : 0103001A
[1768h 5992   4]                     ID Count : 00000000
[176Ch 5996   4]                  Output Base : 00002CC0
[1770h 6000   4]             Output Reference : 00000030
[1774h 6004   4]        Flags (decoded below) : 00000000
                              Single Mapping : 0

[1778h 6008   4]                   Input base : 0103001B
[177Ch 6012   4]                     ID Count : 00000000
[1780h 6016   4]                  Output Base : 00002CE0
[1784h 6020   4]             Output Reference : 00000030
[1788h 6024   4]        Flags (decoded below) : 00000000
                              Single Mapping : 0

[178Ch 6028   4]                   Input base : 0103001C
[1790h 6032   4]                     ID Count : 00000000
[1794h 6036   4]                  Output Base : 00002900
[1798h 6040   4]             Output Reference : 00000030
[179Ch 6044   4]        Flags (decoded below) : 00000000
                              Single Mapping : 0

[17A0h 6048   4]                   Input base : 0103001D
[17A4h 6052   4]                     ID Count : 00000000
[17A8h 6056   4]                  Output Base : 00002920
[17ACh 6060   4]             Output Reference : 00000030
[17B0h 6064   4]        Flags (decoded below) : 00000000
                              Single Mapping : 0

[17B4h 6068   4]                   Input base : 0103001E
[17B8h 6072   4]                     ID Count : 00000000
[17BCh 6076   4]                  Output Base : 00002D00
[17C0h 6080   4]             Output Reference : 00000030
[17C4h 6084   4]        Flags (decoded below) : 00000000
                              Single Mapping : 0

[17C8h 6088   4]                   Input base : 0103001F
[17CCh 6092   4]                     ID Count : 00000000
[17D0h 6096   4]                  Output Base : 00002D20
[17D4h 6100   4]             Output Reference : 00000030
[17D8h 6104   4]        Flags (decoded below) : 00000000
                              Single Mapping : 0

[17DCh 6108   4]                   Input base : 01030020
[17E0h 6112   4]                     ID Count : 00000000
[17E4h 6116   4]                  Output Base : 00002980
[17E8h 6120   4]             Output Reference : 00000030
[17ECh 6124   4]        Flags (decoded below) : 00000000
                              Single Mapping : 0

[17F0h 6128   4]                   Input base : 01030021
[17F4h 6132   4]                     ID Count : 00000000
[17F8h 6136   4]                  Output Base : 000029A0
[17FCh 6140   4]             Output Reference : 00000030
[1800h 6144   4]        Flags (decoded below) : 00000000
                              Single Mapping : 0

[1804h 6148   4]                   Input base : 01030022
[1808h 6152   4]                     ID Count : 00000000
[180Ch 6156   4]                  Output Base : 00002D80
[1810h 6160   4]             Output Reference : 00000030
[1814h 6164   4]        Flags (decoded below) : 00000000
                              Single Mapping : 0

[1818h 6168   4]                   Input base : 01030023
[181Ch 6172   4]                     ID Count : 00000000
[1820h 6176   4]                  Output Base : 00002DA0
[1824h 6180   4]             Output Reference : 00000030
[1828h 6184   4]        Flags (decoded below) : 00000000
                              Single Mapping : 0

[182Ch 6188   1]                         Type : 04
[182Dh 6189   2]                       Length : 0058
[182Fh 6191   1]                     Revision : 00
[1830h 6192   4]                     Reserved : 00000000
[1834h 6196   4]                Mapping Count : 00000001
[1838h 6200   4]               Mapping Offset : 00000044

[183Ch 6204   8]                 Base Address : 0000000014F80000
[1844h 6212   4]        Flags (decoded below) : 00000001
                             COHACC Override : 1
                               HTTU Override : 0
                      Proximity Domain Valid : 0
[1848h 6216   4]                     Reserved : 00000000
[184Ch 6220   8]                VATOS Address : 0000000000000000
[1854h 6228   4]                        Model : 00000000
[1858h 6232   4]                   Event GSIV : 000003D7
[185Ch 6236   4]                     PRI GSIV : 00000000
[1860h 6240   4]                    GERR GSIV : 000003DB
[1864h 6244   4]                    Sync GSIV : 000003D9
[1868h 6248   4]             Proximity Domain : 00000000
[186Ch 6252   4]      Device ID Mapping Index : 00000000

[1870h 6256   4]                   Input base : 00000000
[1874h 6260   4]                     ID Count : 0006FFFF
[1878h 6264   4]                  Output Base : 00080000
[187Ch 6268   4]             Output Reference : 00001884
[1880h 6272   4]        Flags (decoded below) : 00000000
                              Single Mapping : 0

[1884h 6276   1]                         Type : 00
[1885h 6277   2]                       Length : 0018
[1887h 6279   1]                     Revision : 00
[1888h 6280   4]                     Reserved : 00000000
[188Ch 6284   4]                Mapping Count : 00000000
[1890h 6288   4]               Mapping Offset : 00000000

[1894h 6292   4]                     ItsCount : 00000001
[1898h 6296   4]                  Identifiers : 00000000
